; Function Attrs: mustprogress uwtable
define internal fastcc void @_ZN5faiss12_GLOBAL__N_125CoarseQuantizedWithBuffer8quantizeEPKNS_5IndexElPKfPKNS_16SearchParametersE(ptr noundef nonnull align 8 dereferenceable(72) %0, ptr noundef %1, i64 noundef %2, ptr noundef %3, ptr noundef %4) unnamed_addr #2 align 2 personality ptr @__gxx_personality_v0 {
  %6 = getelementptr inbounds nuw i8, ptr %0, i64 48
  %7 = load i64, ptr %0, align 8, !tbaa !75
  %8 = mul i64 %7, %2
  %9 = getelementptr inbounds nuw i8, ptr %0, i64 56
  %10 = load ptr, ptr %9, align 8, !tbaa !160
  %11 = load ptr, ptr %6, align 8, !tbaa !155
  %12 = ptrtoint ptr %10 to i64
  %13 = ptrtoint ptr %11 to i64
  %14 = sub i64 %12, %13
  %15 = ashr exact i64 %14, 2
  %16 = icmp ugt i64 %8, %15
  br i1 %16, label %17, label %19

17:                                               ; preds = %5
  %18 = sub nuw i64 %8, %15
  tail call void @_ZNSt6vectorIfSaIfEE17_M_default_appendEm(ptr noundef nonnull align 8 dereferenceable(24) %6, i64 noundef %18)
  %.pre = load i64, ptr %0, align 8, !tbaa !75
  %.pre9 = mul i64 %.pre, %2
  br label %_ZNSt6vectorIfSaIfEE6resizeEm.exit

19:                                               ; preds = %5
  %20 = icmp ult i64 %8, %15
  br i1 %20, label %21, label %_ZNSt6vectorIfSaIfEE6resizeEm.exit

21:                                               ; preds = %19
  %22 = getelementptr inbounds nuw float, ptr %11, i64 %8
  %.not.i.i = icmp eq ptr %10, %22
  br i1 %.not.i.i, label %_ZNSt6vectorIfSaIfEE6resizeEm.exit, label %23

23:                                               ; preds = %21
  store ptr %22, ptr %9, align 8, !tbaa !160
  br label %_ZNSt6vectorIfSaIfEE6resizeEm.exit

_ZNSt6vectorIfSaIfEE6resizeEm.exit:               ; preds = %17, %19, %21, %23
  %.pre-phi = phi i64 [ %.pre9, %17 ], [ %8, %19 ], [ %8, %21 ], [ %8, %23 ]
  %24 = phi i64 [ %.pre, %17 ], [ %7, %19 ], [ %7, %21 ], [ %7, %23 ]
  %25 = getelementptr inbounds nuw i8, ptr %0, i64 24
  %26 = getelementptr inbounds nuw i8, ptr %0, i64 32
  %27 = load ptr, ptr %26, align 8, !tbaa !161
  %28 = load ptr, ptr %25, align 8, !tbaa !73
  %29 = ptrtoint ptr %27 to i64
  %30 = ptrtoint ptr %28 to i64
  %31 = sub i64 %29, %30
  %32 = ashr exact i64 %31, 3
  %33 = icmp ugt i64 %.pre-phi, %32
  br i1 %33, label %34, label %36

34:                                               ; preds = %_ZNSt6vectorIfSaIfEE6resizeEm.exit
  %35 = sub nuw i64 %.pre-phi, %32
  tail call void @_ZNSt6vectorIlSaIlEE17_M_default_appendEm(ptr noundef nonnull align 8 dereferenceable(24) %25, i64 noundef %35)
  %.pre7 = load i64, ptr %0, align 8, !tbaa !75
  %.pre8 = load ptr, ptr %25, align 8, !tbaa !73
  br label %_ZNSt6vectorIlSaIlEE6resizeEm.exit

36:                                               ; preds = %_ZNSt6vectorIfSaIfEE6resizeEm.exit
  %37 = icmp ult i64 %.pre-phi, %32
  br i1 %37, label %38, label %_ZNSt6vectorIlSaIlEE6resizeEm.exit

38:                                               ; preds = %36
  %39 = getelementptr inbounds nuw i64, ptr %28, i64 %.pre-phi
  %.not.i.i6 = icmp eq ptr %27, %39
  br i1 %.not.i.i6, label %_ZNSt6vectorIlSaIlEE6resizeEm.exit, label %40

40:                                               ; preds = %38
  store ptr %39, ptr %26, align 8, !tbaa !161
  br label %_ZNSt6vectorIlSaIlEE6resizeEm.exit

_ZNSt6vectorIlSaIlEE6resizeEm.exit:               ; preds = %34, %36, %38, %40
  %41 = phi ptr [ %.pre8, %34 ], [ %28, %36 ], [ %28, %38 ], [ %28, %40 ]
  %42 = phi i64 [ %.pre7, %34 ], [ %24, %36 ], [ %24, %38 ], [ %24, %40 ]
  %43 = load ptr, ptr %6, align 8, !tbaa !155
  %44 = load ptr, ptr %1, align 8, !tbaa !25
  %45 = getelementptr inbounds nuw i8, ptr %44, i64 40
  %46 = load ptr, ptr %45, align 8
  tail call void %46(ptr noundef nonnull align 8 dereferenceable(36) %1, i64 noundef %2, ptr noundef %3, i64 noundef %42, ptr noundef %43, ptr noundef %41, ptr noundef %4)
  %47 = load ptr, ptr %6, align 8, !tbaa !155
  %48 = getelementptr inbounds nuw i8, ptr %0, i64 8
  store ptr %47, ptr %48, align 8, !tbaa !85
  %49 = load ptr, ptr %25, align 8, !tbaa !73
  %50 = getelementptr inbounds nuw i8, ptr %0, i64 16
  store ptr %49, ptr %50, align 8, !tbaa !86
  ret void
}